; Function Attrs: nounwind uwtable
define internal range(i32 0, 2) i32 @test_kdf_tls1_prf() #0 {
  %1 = alloca [16 x i8], align 16
  call void @llvm.lifetime.start.p0(i64 16, ptr nonnull %1) #6
  %2 = tail call fastcc ptr @construct_tls1_prf_params(ptr noundef nonnull @.str.60, ptr noundef nonnull @.str.118, ptr noundef nonnull @.str.81)
  %3 = tail call i32 @test_ptr(ptr noundef nonnull @.str.53, i32 noundef 72, ptr noundef nonnull @.str.62, ptr noundef %2) #6
  %.not = icmp eq i32 %3, 0
  br i1 %.not, label %15, label %4

4:                                                ; preds = %0
  %5 = tail call ptr @EVP_KDF_fetch(ptr noundef null, ptr noundef nonnull @.str.110, ptr noundef null) #6
  %6 = tail call ptr @EVP_KDF_CTX_new(ptr noundef %5) #6
  tail call void @EVP_KDF_free(ptr noundef %5) #6
  %7 = tail call i32 @test_ptr(ptr noundef nonnull @.str.53, i32 noundef 73, ptr noundef nonnull @.str.119, ptr noundef %6) #6
  %.not5 = icmp eq i32 %7, 0
  br i1 %.not5, label %15, label %8

8:                                                ; preds = %4
  %9 = call i32 @EVP_KDF_derive(ptr noundef %6, ptr noundef nonnull %1, i64 noundef 16, ptr noundef %2) #6
  %10 = call i32 @test_int_gt(ptr noundef nonnull @.str.53, i32 noundef 74, ptr noundef nonnull @.str.120, ptr noundef nonnull @.str.67, i32 noundef %9, i32 noundef 0) #6
  %.not6 = icmp eq i32 %10, 0
  br i1 %.not6, label %15, label %11

11:                                               ; preds = %8
  %12 = call i32 @test_mem_eq(ptr noundef nonnull @.str.53, i32 noundef 75, ptr noundef nonnull @.str.68, ptr noundef nonnull @.str.69, ptr noundef nonnull %1, i64 noundef 16, ptr noundef nonnull @test_kdf_tls1_prf.expected, i64 noundef 16) #6
  %13 = icmp ne i32 %12, 0
  %14 = zext i1 %13 to i32
  br label %15

15:                                               ; preds = %11, %8, %4, %0
  %.0 = phi ptr [ %6, %11 ], [ %6, %8 ], [ %6, %4 ], [ null, %0 ]
  %16 = phi i32 [ %14, %11 ], [ 0, %8 ], [ 0, %4 ], [ 0, %0 ]
  call void @EVP_KDF_CTX_free(ptr noundef %.0) #6
  call void @CRYPTO_free(ptr noundef %2, ptr noundef nonnull @.str.53, i32 noundef 78) #6
  call void @llvm.lifetime.end.p0(i64 16, ptr nonnull %1) #6
  ret i32 %16
}